Certificate:
    Data:
        Version: 3 (0x2)
        Serial Number: 1 (0x1)
        Signature Algorithm: sha256WithRSAEncryption
        Issuer: CN=QUIC Server Root CA
        Validity
            Not Before: Mar 31 10:05:42 2023 GMT
            Not After : Apr  3 10:05:42 2023 GMT
        Subject: C=US, ST=California, L=Mountain View, O=QUIC Server, CN=127.0.0.1
        Subject Public Key Info:
            Public Key Algorithm: rsaEncryption
                Public-Key: (2048 bit)
                Modulus:
                    00:c9:7d:cf:8c:0a:19:dc:9c:05:41:27:31:00:e2:
                    bf:d2:62:36:3a:99:8d:9e:0d:ee:64:34:9a:4d:18:
                    0c:71:70:f8:b7:14:c6:b7:52:4a:bd:18:0a:91:20:
                    03:17:8b:41:8b:f2:0e:bf:00:59:d8:27:dd:9a:83:
                    0a:d5:e4:76:4b:43:a5:8d:3c:aa:40:40:a5:a9:26:
                    95:e3:4e:f4:05:36:bd:58:af:e7:4a:de:84:4a:8d:
                    79:10:e9:ea:9c:2f:d0:18:40:7f:2a:e9:e8:46:05:
                    65:5e:29:ec:4d:4c:40:05:3e:bb:a6:06:1a:d6:8b:
                    99:9f:cb:82:1a:ae:e7:1d:79:12:bb:c3:01:f9:a6:
                    28:fc:c7:7a:d7:17:e8:6c:34:81:bf:d7:47:55:83:
                    c9:da:21:79:4e:42:d2:7e:13:7e:4c:17:5a:9d:c4:
                    ca:aa:97:a5:86:3d:2c:59:8c:4c:f8:38:db:d6:61:
                    3a:bd:d4:e4:27:34:58:f3:0f:9f:fa:78:c1:67:de:
                    ec:47:e3:14:b5:0c:c5:54:57:56:75:82:32:ba:86:
                    47:92:4a:d7:5f:98:04:a2:ef:cc:2b:cf:69:d5:c4:
                    50:23:4f:eb:c1:7e:cb:23:4a:ca:18:93:71:78:3e:
                    4b:e9:e3:fe:c1:6a:17:d5:7e:a4:05:74:8f:4c:e7:
                    20:3f
                Exponent: 65537 (0x10001)
        X509v3 extensions:
            X509v3 Basic Constraints: critical
                CA:FALSE
            X509v3 Subject Key Identifier: 
                DD:D3:7A:E2:0C:21:EE:F4:BE:F0:08:7B:6D:E6:35:42:1D:35:9C:37
            X509v3 Authority Key Identifier: 
                36:54:2F:04:9B:BE:55:10:A5:A0:6A:DA:D2:6B:C7:D4:A4:C6:49:F7
            X509v3 Extended Key Usage: 
                TLS Web Server Authentication, TLS Web Client Authentication
            X509v3 Subject Alternative Name: 
                DNS:sampledwd
    Signature Algorithm: sha256WithRSAEncryption
    Signature Value:
        3f:8d:b9:f0:30:ed:58:b6:5c:e7:9c:41:d3:29:6d:ef:2c:ba:
        61:11:ad:bf:61:2a:c0:f3:1b:e8:c9:6c:77:27:1f:f2:52:32:
        94:de:3e:32:0a:03:4a:52:4e:f4:49:76:29:3c:18:f5:46:46:
        2b:a3:53:65:31:d4:6b:cc:b4:84:d1:29:f2:4c:ea:dc:3c:49:
        09:af:ba:14:0f:be:ab:8b:ea:50:ef:4b:01:a1:5a:c6:5f:0b:
        94:40:f4:d3:83:fe:34:f2:9a:06:e6:1d:eb:1a:06:b4:ec:bf:
        df:f7:cc:b5:21:81:ce:b0:f0:9e:e0:4e:1e:ee:4c:15:f2:7f:
        91:46:d8:f8:f2:d5:8d:89:a4:4e:3b:28:8d:6c:56:8b:78:42:
        37:51:8e:7c:5a:37:1c:ff:7a:50:d3:29:f3:71:b1:89:5e:ab:
        46:d7:43:34:52:31:16:98:a8:64:95:95:96:9b:16:18:df:b4:
        19:a8:c2:f8:7a:58:b8:7a:56:d0:0a:28:be:71:8e:26:87:6b:
        11:db:11:4b:ce:09:02:33:39:d0:83:db:02:a9:ae:b9:ac:fc:
        32:98:7a:50:d8:84:17:58:d3:8a:97:7a:60:ca:20:2c:ee:24:
        c7:24:10:73:42:7e:db:cc:d3:2a:37:2f:eb:fd:48:be:3c:c0:
        43:1a:bc:c7
-----BEGIN CERTIFICATE-----
MIIDhDCCAmygAwIBAgIBATANBgkqhkiG9w0BAQsFADAeMRwwGgYDVQQDDBNRVUlD
IFNlcnZlciBSb290IENBMB4XDTIzMDMzMTEwMDU0MloXDTIzMDQwMzEwMDU0Mlow
ZDELMAkGA1UEBhMCVVMxEzARBgNVBAgMCkNhbGlmb3JuaWExFjAUBgNVBAcMDU1v
dW50YWluIFZpZXcxFDASBgNVBAoMC1FVSUMgU2VydmVyMRIwEAYDVQQDDAkxMjcu
MC4wLjEwggEiMA0GCSqGSIb3DQEBAQUAA4IBDwAwggEKAoIBAQDJfc+MChncnAVB
JzEA4r/SYjY6mY2eDe5kNJpNGAxxcPi3FMa3Ukq9GAqRIAMXi0GL8g6/AFnYJ92a
gwrV5HZLQ6WNPKpAQKWpJpXjTvQFNr1Yr+dK3oRKjXkQ6eqcL9AYQH8q6ehGBWVe
KexNTEAFPrumBhrWi5mfy4IarucdeRK7wwH5pij8x3rXF+hsNIG/10dVg8naIXlO
QtJ+E35MF1qdxMqql6WGPSxZjEz4ONvWYTq91OQnNFjzD5/6eMFn3uxH4xS1DMVU
V1Z1gjK6hkeSStdfmASi78wrz2nVxFAjT+vBfssjSsoYk3F4Pkvp4/7BahfVfqQF
dI9M5yA/AgMBAAGjgYYwgYMwDAYDVR0TAQH/BAIwADAdBgNVHQ4EFgQU3dN64gwh
7vS+8Ah7beY1Qh01nDcwHwYDVR0jBBgwFoAUNlQvBJu+VRCloGra0mvH1KTGSfcw
HQYDVR0lBBYwFAYIKwYBBQUHAwEGCCsGAQUFBwMCMBQGA1UdEQQNMAuCCXNhbXBs
ZWR3ZDANBgkqhkiG9w0BAQsFAAOCAQEAP4258DDtWLZc55xB0ylt7yy6YRGtv2Eq
wPMb6Mlsdycf8lIylN4+MgoDSlJO9El2KTwY9UZGK6NTZTHUa8y0hNEp8kzq3DxJ
Ca+6FA++q4vqUO9LAaFaxl8LlED004P+NPKaBuYd6xoGtOy/3/fMtSGBzrDwnuBO
Hu5MFfJ/kUbY+PLVjYmkTjsojWxWi3hCN1GOfFo3HP96UNMp83GxiV6rRtdDNFIx
FpioZJWVlpsWGN+0GajC+HpYuHpW0AoovnGOJodrEdsRS84JAjM50IPbAqmuuaz8
Mph6UNiEF1jTipd6YMogLO4kxyQQc0J+28zTKjcv6/1IvjzAQxq8xw==
-----END CERTIFICATE-----
